
dioda_blink.elf:     file format elf32-avr

Sections:
Idx Name          Size      VMA       LMA       File off  Algn
  0 .text         00000262  00000000  00000000  00000054  2**1
                  CONTENTS, ALLOC, LOAD, READONLY, CODE
  1 .comment      00000030  00000000  00000000  000002b6  2**0
                  CONTENTS, READONLY
  2 .note.gnu.avr.deviceinfo 0000003c  00000000  00000000  000002e8  2**2
                  CONTENTS, READONLY
  3 .debug_info   000005f4  00000000  00000000  00000324  2**0
                  CONTENTS, READONLY, DEBUGGING
  4 .debug_abbrev 000005a2  00000000  00000000  00000918  2**0
                  CONTENTS, READONLY, DEBUGGING
  5 .debug_line   0000001a  00000000  00000000  00000eba  2**0
                  CONTENTS, READONLY, DEBUGGING
  6 .debug_str    00000208  00000000  00000000  00000ed4  2**0
                  CONTENTS, READONLY, DEBUGGING

Disassembly of section .text:

00000000 <__vectors>:
   0:	19 c0       	rjmp	.+50     	; 0x34 <__ctors_end>
   2:	20 c0       	rjmp	.+64     	; 0x44 <__bad_interrupt>
   4:	1f c0       	rjmp	.+62     	; 0x44 <__bad_interrupt>
   6:	1e c0       	rjmp	.+60     	; 0x44 <__bad_interrupt>
   8:	1d c0       	rjmp	.+58     	; 0x44 <__bad_interrupt>
   a:	1c c0       	rjmp	.+56     	; 0x44 <__bad_interrupt>
   c:	1b c0       	rjmp	.+54     	; 0x44 <__bad_interrupt>
   e:	1a c0       	rjmp	.+52     	; 0x44 <__bad_interrupt>
  10:	19 c0       	rjmp	.+50     	; 0x44 <__bad_interrupt>
  12:	18 c0       	rjmp	.+48     	; 0x44 <__bad_interrupt>
  14:	17 c0       	rjmp	.+46     	; 0x44 <__bad_interrupt>
  16:	16 c0       	rjmp	.+44     	; 0x44 <__bad_interrupt>
  18:	15 c0       	rjmp	.+42     	; 0x44 <__bad_interrupt>
  1a:	14 c0       	rjmp	.+40     	; 0x44 <__bad_interrupt>
  1c:	13 c0       	rjmp	.+38     	; 0x44 <__bad_interrupt>
  1e:	12 c0       	rjmp	.+36     	; 0x44 <__bad_interrupt>
  20:	11 c0       	rjmp	.+34     	; 0x44 <__bad_interrupt>
  22:	10 c0       	rjmp	.+32     	; 0x44 <__bad_interrupt>
  24:	0f c0       	rjmp	.+30     	; 0x44 <__bad_interrupt>
  26:	0e c0       	rjmp	.+28     	; 0x44 <__bad_interrupt>
  28:	0d c0       	rjmp	.+26     	; 0x44 <__bad_interrupt>
  2a:	0c c0       	rjmp	.+24     	; 0x44 <__bad_interrupt>
  2c:	0b c0       	rjmp	.+22     	; 0x44 <__bad_interrupt>
  2e:	0a c0       	rjmp	.+20     	; 0x44 <__bad_interrupt>
  30:	09 c0       	rjmp	.+18     	; 0x44 <__bad_interrupt>
  32:	08 c0       	rjmp	.+16     	; 0x44 <__bad_interrupt>

00000034 <__ctors_end>:
  34:	11 24       	eor	r1, r1
  36:	1f be       	out	0x3f, r1	; 63
  38:	cf ef       	ldi	r28, 0xFF	; 255
  3a:	d4 e0       	ldi	r29, 0x04	; 4
  3c:	de bf       	out	0x3e, r29	; 62
  3e:	cd bf       	out	0x3d, r28	; 61
  40:	fe d0       	rcall	.+508    	; 0x23e <main>
  42:	0d c1       	rjmp	.+538    	; 0x25e <_exit>

00000044 <__bad_interrupt>:
  44:	dd cf       	rjmp	.-70     	; 0x0 <__vectors>

00000046 <setupSensors>:
  46:	aa e7       	ldi	r26, 0x7A	; 122
  48:	b0 e0       	ldi	r27, 0x00	; 0
  4a:	8c 91       	ld	r24, X
  4c:	80 68       	ori	r24, 0x80	; 128
  4e:	8c 93       	st	X, r24
  50:	ec e7       	ldi	r30, 0x7C	; 124
  52:	f0 e0       	ldi	r31, 0x00	; 0
  54:	80 81       	ld	r24, Z
  56:	80 64       	ori	r24, 0x40	; 64
  58:	80 83       	st	Z, r24
  5a:	8c 91       	ld	r24, X
  5c:	87 60       	ori	r24, 0x07	; 7
  5e:	8c 93       	st	X, r24
  60:	80 81       	ld	r24, Z
  62:	80 7f       	andi	r24, 0xF0	; 240
  64:	80 83       	st	Z, r24
  66:	08 95       	ret

00000068 <leftEdgeSensor>:
  68:	80 91 7c 00 	lds	r24, 0x007C
  6c:	80 7f       	andi	r24, 0xF0	; 240
  6e:	80 93 7c 00 	sts	0x007C, r24
  72:	80 91 7c 00 	lds	r24, 0x007C
  76:	81 60       	ori	r24, 0x01	; 1
  78:	80 93 7c 00 	sts	0x007C, r24
  7c:	80 91 7a 00 	lds	r24, 0x007A
  80:	80 64       	ori	r24, 0x40	; 64
  82:	80 93 7a 00 	sts	0x007A, r24
  86:	80 91 7a 00 	lds	r24, 0x007A
  8a:	86 fd       	sbrc	r24, 6
  8c:	fc cf       	rjmp	.-8      	; 0x86 <leftEdgeSensor+0x1e>
  8e:	20 91 78 00 	lds	r18, 0x0078
  92:	30 91 79 00 	lds	r19, 0x0079
  96:	81 e0       	ldi	r24, 0x01	; 1
  98:	2d 32       	cpi	r18, 0x2D	; 45
  9a:	31 40       	sbci	r19, 0x01	; 1
  9c:	08 f4       	brcc	.+2      	; 0xa0 <leftEdgeSensor+0x38>
  9e:	80 e0       	ldi	r24, 0x00	; 0
  a0:	08 95       	ret

000000a2 <leftSensor>:
  a2:	80 91 7c 00 	lds	r24, 0x007C
  a6:	80 7f       	andi	r24, 0xF0	; 240
  a8:	80 93 7c 00 	sts	0x007C, r24
  ac:	80 91 7a 00 	lds	r24, 0x007A
  b0:	80 64       	ori	r24, 0x40	; 64
  b2:	80 93 7a 00 	sts	0x007A, r24
  b6:	80 91 7a 00 	lds	r24, 0x007A
  ba:	86 fd       	sbrc	r24, 6
  bc:	fc cf       	rjmp	.-8      	; 0xb6 <leftSensor+0x14>
  be:	20 91 78 00 	lds	r18, 0x0078
  c2:	30 91 79 00 	lds	r19, 0x0079
  c6:	81 e0       	ldi	r24, 0x01	; 1
  c8:	2d 32       	cpi	r18, 0x2D	; 45
  ca:	31 40       	sbci	r19, 0x01	; 1
  cc:	08 f4       	brcc	.+2      	; 0xd0 <leftSensor+0x2e>
  ce:	80 e0       	ldi	r24, 0x00	; 0
  d0:	08 95       	ret

000000d2 <rightEdgeSensor>:
  d2:	80 91 7c 00 	lds	r24, 0x007C
  d6:	80 7f       	andi	r24, 0xF0	; 240
  d8:	80 93 7c 00 	sts	0x007C, r24
  dc:	80 91 7c 00 	lds	r24, 0x007C
  e0:	83 60       	ori	r24, 0x03	; 3
  e2:	80 93 7c 00 	sts	0x007C, r24
  e6:	80 91 7a 00 	lds	r24, 0x007A
  ea:	80 64       	ori	r24, 0x40	; 64
  ec:	80 93 7a 00 	sts	0x007A, r24
  f0:	80 91 7a 00 	lds	r24, 0x007A
  f4:	86 fd       	sbrc	r24, 6
  f6:	fc cf       	rjmp	.-8      	; 0xf0 <rightEdgeSensor+0x1e>
  f8:	20 91 78 00 	lds	r18, 0x0078
  fc:	30 91 79 00 	lds	r19, 0x0079
 100:	81 e0       	ldi	r24, 0x01	; 1
 102:	2d 32       	cpi	r18, 0x2D	; 45
 104:	31 40       	sbci	r19, 0x01	; 1
 106:	08 f4       	brcc	.+2      	; 0x10a <rightEdgeSensor+0x38>
 108:	80 e0       	ldi	r24, 0x00	; 0
 10a:	08 95       	ret

0000010c <rightSensor>:
 10c:	80 91 7c 00 	lds	r24, 0x007C
 110:	80 7f       	andi	r24, 0xF0	; 240
 112:	80 93 7c 00 	sts	0x007C, r24
 116:	80 91 7c 00 	lds	r24, 0x007C
 11a:	82 60       	ori	r24, 0x02	; 2
 11c:	80 93 7c 00 	sts	0x007C, r24
 120:	80 91 7a 00 	lds	r24, 0x007A
 124:	80 64       	ori	r24, 0x40	; 64
 126:	80 93 7a 00 	sts	0x007A, r24
 12a:	80 91 7a 00 	lds	r24, 0x007A
 12e:	86 fd       	sbrc	r24, 6
 130:	fc cf       	rjmp	.-8      	; 0x12a <rightSensor+0x1e>
 132:	20 91 78 00 	lds	r18, 0x0078
 136:	30 91 79 00 	lds	r19, 0x0079
 13a:	81 e0       	ldi	r24, 0x01	; 1
 13c:	2d 32       	cpi	r18, 0x2D	; 45
 13e:	31 40       	sbci	r19, 0x01	; 1
 140:	08 f4       	brcc	.+2      	; 0x144 <rightSensor+0x38>
 142:	80 e0       	ldi	r24, 0x00	; 0
 144:	08 95       	ret

00000146 <readSensors>:
 146:	cf 93       	push	r28
 148:	8f df       	rcall	.-226    	; 0x68 <leftEdgeSensor>
 14a:	88 23       	and	r24, r24
 14c:	11 f0       	breq	.+4      	; 0x152 <readSensors+0xc>
 14e:	c8 e0       	ldi	r28, 0x08	; 8
 150:	01 c0       	rjmp	.+2      	; 0x154 <readSensors+0xe>
 152:	c0 e0       	ldi	r28, 0x00	; 0
 154:	a6 df       	rcall	.-180    	; 0xa2 <leftSensor>
 156:	81 11       	cpse	r24, r1
 158:	c4 60       	ori	r28, 0x04	; 4
 15a:	d8 df       	rcall	.-80     	; 0x10c <rightSensor>
 15c:	81 11       	cpse	r24, r1
 15e:	c2 60       	ori	r28, 0x02	; 2
 160:	b8 df       	rcall	.-144    	; 0xd2 <rightEdgeSensor>
 162:	81 11       	cpse	r24, r1
 164:	c1 60       	ori	r28, 0x01	; 1
 166:	8c 2f       	mov	r24, r28
 168:	cf 91       	pop	r28
 16a:	08 95       	ret

0000016c <setupPWMandMOTORS>:
 16c:	8a b1       	in	r24, 0x0a	; 10
 16e:	81 6f       	ori	r24, 0xF1	; 241
 170:	8a b9       	out	0x0a, r24	; 10
 172:	84 b1       	in	r24, 0x04	; 4
 174:	86 60       	ori	r24, 0x06	; 6
 176:	84 b9       	out	0x04, r24	; 4
 178:	8b b1       	in	r24, 0x0b	; 11
 17a:	80 66       	ori	r24, 0x60	; 96
 17c:	8b b9       	out	0x0b, r24	; 11
 17e:	e0 e8       	ldi	r30, 0x80	; 128
 180:	f0 e0       	ldi	r31, 0x00	; 0
 182:	80 81       	ld	r24, Z
 184:	81 6a       	ori	r24, 0xA1	; 161
 186:	80 83       	st	Z, r24
 188:	e1 e8       	ldi	r30, 0x81	; 129
 18a:	f0 e0       	ldi	r31, 0x00	; 0
 18c:	80 81       	ld	r24, Z
 18e:	89 60       	ori	r24, 0x09	; 9
 190:	80 83       	st	Z, r24
 192:	78 94       	sei
 194:	08 95       	ret

00000196 <forward>:
 196:	8b b1       	in	r24, 0x0b	; 11
 198:	8f 76       	andi	r24, 0x6F	; 111
 19a:	8b b9       	out	0x0b, r24	; 11
 19c:	8b b1       	in	r24, 0x0b	; 11
 19e:	80 66       	ori	r24, 0x60	; 96
 1a0:	8b b9       	out	0x0b, r24	; 11
 1a2:	08 95       	ret

000001a4 <left>:
 1a4:	5d 98       	cbi	0x0b, 5	; 11
 1a6:	8b b1       	in	r24, 0x0b	; 11
 1a8:	80 65       	ori	r24, 0x50	; 80
 1aa:	8b b9       	out	0x0b, r24	; 11
 1ac:	08 95       	ret

000001ae <right>:
 1ae:	5e 98       	cbi	0x0b, 6	; 11
 1b0:	8b b1       	in	r24, 0x0b	; 11
 1b2:	80 6a       	ori	r24, 0xA0	; 160
 1b4:	8b b9       	out	0x0b, r24	; 11
 1b6:	08 95       	ret

000001b8 <controlMotors>:
 1b8:	8f 30       	cpi	r24, 0x0F	; 15
 1ba:	41 f4       	brne	.+16     	; 0x1cc <controlMotors+0x14>
 1bc:	ec df       	rcall	.-40     	; 0x196 <forward>
 1be:	8f ef       	ldi	r24, 0xFF	; 255
 1c0:	90 e0       	ldi	r25, 0x00	; 0
 1c2:	90 93 89 00 	sts	0x0089, r25
 1c6:	80 93 88 00 	sts	0x0088, r24
 1ca:	23 c0       	rjmp	.+70     	; 0x212 <controlMotors+0x5a>
 1cc:	8e 30       	cpi	r24, 0x0E	; 14
 1ce:	11 f0       	breq	.+4      	; 0x1d4 <controlMotors+0x1c>
 1d0:	8c 30       	cpi	r24, 0x0C	; 12
 1d2:	11 f4       	brne	.+4      	; 0x1d8 <controlMotors+0x20>
 1d4:	ec df       	rcall	.-40     	; 0x1ae <right>
 1d6:	03 c0       	rjmp	.+6      	; 0x1de <controlMotors+0x26>
 1d8:	8d 30       	cpi	r24, 0x0D	; 13
 1da:	51 f4       	brne	.+20     	; 0x1f0 <controlMotors+0x38>
 1dc:	dc df       	rcall	.-72     	; 0x196 <forward>
 1de:	80 e8       	ldi	r24, 0x80	; 128
 1e0:	90 e0       	ldi	r25, 0x00	; 0
 1e2:	90 93 89 00 	sts	0x0089, r25
 1e6:	80 93 88 00 	sts	0x0088, r24
 1ea:	8f ef       	ldi	r24, 0xFF	; 255
 1ec:	90 e0       	ldi	r25, 0x00	; 0
 1ee:	11 c0       	rjmp	.+34     	; 0x212 <controlMotors+0x5a>
 1f0:	87 30       	cpi	r24, 0x07	; 7
 1f2:	11 f0       	breq	.+4      	; 0x1f8 <controlMotors+0x40>
 1f4:	83 30       	cpi	r24, 0x03	; 3
 1f6:	11 f4       	brne	.+4      	; 0x1fc <controlMotors+0x44>
 1f8:	d5 df       	rcall	.-86     	; 0x1a4 <left>
 1fa:	03 c0       	rjmp	.+6      	; 0x202 <controlMotors+0x4a>
 1fc:	8b 30       	cpi	r24, 0x0B	; 11
 1fe:	71 f4       	brne	.+28     	; 0x21c <controlMotors+0x64>
 200:	ca df       	rcall	.-108    	; 0x196 <forward>
 202:	8f ef       	ldi	r24, 0xFF	; 255
 204:	90 e0       	ldi	r25, 0x00	; 0
 206:	90 93 89 00 	sts	0x0089, r25
 20a:	80 93 88 00 	sts	0x0088, r24
 20e:	80 e8       	ldi	r24, 0x80	; 128
 210:	90 e0       	ldi	r25, 0x00	; 0
 212:	90 93 8b 00 	sts	0x008B, r25
 216:	80 93 8a 00 	sts	0x008A, r24
 21a:	0e c0       	rjmp	.+28     	; 0x238 <controlMotors+0x80>
 21c:	81 11       	cpse	r24, r1
 21e:	0c c0       	rjmp	.+24     	; 0x238 <controlMotors+0x80>
 220:	ba df       	rcall	.-140    	; 0x196 <forward>
 222:	10 92 89 00 	sts	0x0089, r1
 226:	10 92 88 00 	sts	0x0088, r1
 22a:	10 92 8b 00 	sts	0x008B, r1
 22e:	10 92 8a 00 	sts	0x008A, r1
 232:	81 e0       	ldi	r24, 0x01	; 1
 234:	90 e0       	ldi	r25, 0x00	; 0
 236:	08 95       	ret
 238:	80 e0       	ldi	r24, 0x00	; 0
 23a:	90 e0       	ldi	r25, 0x00	; 0
 23c:	08 95       	ret

0000023e <main>:
 23e:	96 df       	rcall	.-212    	; 0x16c <setupPWMandMOTORS>
 240:	02 df       	rcall	.-508    	; 0x46 <setupSensors>
 242:	81 df       	rcall	.-254    	; 0x146 <readSensors>
 244:	8f 30       	cpi	r24, 0x0F	; 15
 246:	11 f0       	breq	.+4      	; 0x24c <main+0xe>
 248:	58 98       	cbi	0x0b, 0	; 11
 24a:	01 c0       	rjmp	.+2      	; 0x24e <main+0x10>
 24c:	58 9a       	sbi	0x0b, 0	; 11
 24e:	b4 df       	rcall	.-152    	; 0x1b8 <controlMotors>
 250:	8f eb       	ldi	r24, 0xBF	; 191
 252:	9d e5       	ldi	r25, 0x5D	; 93
 254:	01 97       	sbiw	r24, 0x01	; 1
 256:	f1 f7       	brne	.-4      	; 0x254 <main+0x16>
 258:	00 c0       	rjmp	.+0      	; 0x25a <main+0x1c>
 25a:	00 00       	nop
 25c:	f2 cf       	rjmp	.-28     	; 0x242 <main+0x4>

0000025e <_exit>:
 25e:	f8 94       	cli

00000260 <__stop_program>:
 260:	ff cf       	rjmp	.-2      	; 0x260 <__stop_program>
